target datalayout = "e-m:e-p270:32:32-p271:32:32-p272:64:64-i64:64-i128:128-f80:128-n8:16:32:64-S128"
target triple = "x86_64-pc-linux-gnu"

@dsa_test.seed = internal global [20 x i8] c"\D5\01NK`\EF+\A8\B6!\1B@b\BA2$\E0B}\D3", align 16
@dsa_test.str1 = internal constant [21 x i8] c"12345678901234567890\00", align 16
@.str.5 = private unnamed_addr constant [26 x i8] c"../openssl/test/dsatest.c\00", align 1
@.str.6 = private unnamed_addr constant [20 x i8] c"cb = BN_GENCB_new()\00", align 1
@.str.7 = private unnamed_addr constant [16 x i8] c"dsa = DSA_new()\00", align 1
@.str.8 = private unnamed_addr constant [65 x i8] c"DSA_generate_parameters_ex(dsa, 512, seed, 20, &counter, &h, cb)\00", align 1
@.str.9 = private unnamed_addr constant [8 x i8] c"counter\00", align 1
@.str.10 = private unnamed_addr constant [4 x i8] c"105\00", align 1
@.str.11 = private unnamed_addr constant [2 x i8] c"h\00", align 1
@.str.12 = private unnamed_addr constant [2 x i8] c"2\00", align 1
@.str.13 = private unnamed_addr constant [2 x i8] c"i\00", align 1
@.str.14 = private unnamed_addr constant [2 x i8] c"j\00", align 1
@.str.15 = private unnamed_addr constant [4 x i8] c"buf\00", align 1
@.str.16 = private unnamed_addr constant [6 x i8] c"out_q\00", align 1
@out_q = internal global [20 x i8] c"\C7s!\8Cs~\C8\EE\99;O-\ED0\F4\8E\DA\CE\91_", align 16
@.str.17 = private unnamed_addr constant [6 x i8] c"out_p\00", align 1
@out_p = internal global [64 x i8] c"\8D\F2\A4\94I\22v\AA=%u\9B\B0hi\CB\EA\C0\D8:\FB\8D\0C\F7\CB\B82O\0Dx\82\E5\D0v/\C5\B7!\0E\AF\C2\E9\AD\AC2\ABz\ACIi=\FB\F87$\C2\EC\076\EE1\C8\02\91", align 16
@.str.18 = private unnamed_addr constant [6 x i8] c"out_g\00", align 1
@out_g = internal global [64 x i8] c"bm\02x9\EA\0A\13A1c\A5[L\B5\00)\9DU\22\95l\EF\CB;\FF\10\F3\99\CE,.q\CB\9D\E5\FA$\BA\BFX\E5\B7\95!\92\\\9C\C4.\9FoFK\08\8C\C5r\AFS\E6\D7\88\02", align 16
@.str.19 = private unnamed_addr constant [22 x i8] c"DSA_generate_key(dsa)\00", align 1
@.str.20 = private unnamed_addr constant [41 x i8] c"DSA_sign(0, str1, 20, sig, &siglen, dsa)\00", align 1
@.str.21 = private unnamed_addr constant [42 x i8] c"DSA_verify(0, str1, 20, sig, siglen, dsa)\00", align 1
@.str.22 = private unnamed_addr constant [2 x i8] c"0\00", align 1

; Function Attrs: nounwind uwtable
define internal i32 @dsa_test() #0 {
  %1 = alloca ptr, align 8
  %2 = alloca ptr, align 8
  %3 = alloca i32, align 4
  %4 = alloca i32, align 4
  %5 = alloca i32, align 4
  %6 = alloca i32, align 4
  %7 = alloca [256 x i8], align 16
  %8 = alloca i64, align 8
  %9 = alloca [256 x i8], align 16
  %10 = alloca i32, align 4
  %11 = alloca ptr, align 8
  %12 = alloca ptr, align 8
  %13 = alloca ptr, align 8
  call void @llvm.lifetime.start.p0(i64 8, ptr %1) #4
  call void @llvm.lifetime.start.p0(i64 8, ptr %2) #4
  store ptr null, ptr %2, align 8, !tbaa !4
  call void @llvm.lifetime.start.p0(i64 4, ptr %3) #4
  call void @llvm.lifetime.start.p0(i64 4, ptr %4) #4
  store i32 0, ptr %4, align 4, !tbaa !9
  call void @llvm.lifetime.start.p0(i64 4, ptr %5) #4
  call void @llvm.lifetime.start.p0(i64 4, ptr %6) #4
  call void @llvm.lifetime.start.p0(i64 256, ptr %7) #4
  call void @llvm.lifetime.start.p0(i64 8, ptr %8) #4
  call void @llvm.lifetime.start.p0(i64 256, ptr %9) #4
  call void @llvm.lifetime.start.p0(i64 4, ptr %10) #4
  call void @llvm.lifetime.start.p0(i64 8, ptr %11) #4
  store ptr null, ptr %11, align 8, !tbaa !11
  call void @llvm.lifetime.start.p0(i64 8, ptr %12) #4
  store ptr null, ptr %12, align 8, !tbaa !11
  call void @llvm.lifetime.start.p0(i64 8, ptr %13) #4
  store ptr null, ptr %13, align 8, !tbaa !11
  %14 = call ptr @BN_GENCB_new()
  store ptr %14, ptr %1, align 8, !tbaa !13
  %15 = call i32 @test_ptr(ptr noundef @.str.5, i32 noundef 82, ptr noundef @.str.6, ptr noundef %14)
  %16 = icmp ne i32 %15, 0
  br i1 %16, label %18, label %17

17:                                               ; preds = %0
  br label %121

18:                                               ; preds = %0
  %19 = load ptr, ptr %1, align 8, !tbaa !13
  call void @BN_GENCB_set(ptr noundef %19, ptr noundef @dsa_cb, ptr noundef null)
  %20 = call ptr @DSA_new()
  store ptr %20, ptr %2, align 8, !tbaa !4
  %21 = call i32 @test_ptr(ptr noundef @.str.5, i32 noundef 86, ptr noundef @.str.7, ptr noundef %20)
  %22 = icmp ne i32 %21, 0
  br i1 %22, label %23, label %31

23:                                               ; preds = %18
  %24 = load ptr, ptr %2, align 8, !tbaa !4
  %25 = load ptr, ptr %1, align 8, !tbaa !13
  %26 = call i32 @DSA_generate_parameters_ex(ptr noundef %24, i32 noundef 512, ptr noundef @dsa_test.seed, i32 noundef 20, ptr noundef %3, ptr noundef %8, ptr noundef %25)
  %27 = icmp ne i32 %26, 0
  %28 = zext i1 %27 to i32
  %29 = call i32 @test_true(ptr noundef @.str.5, i32 noundef 88, ptr noundef @.str.8, i32 noundef %28)
  %30 = icmp ne i32 %29, 0
  br i1 %30, label %32, label %31

31:                                               ; preds = %23, %18
  br label %121

32:                                               ; preds = %23
  %33 = load i32, ptr %3, align 4, !tbaa !9
  %34 = call i32 @test_int_eq(ptr noundef @.str.5, i32 noundef 91, ptr noundef @.str.9, ptr noundef @.str.10, i32 noundef %33, i32 noundef 105)
  %35 = icmp ne i32 %34, 0
  br i1 %35, label %37, label %36

36:                                               ; preds = %32
  br label %121

37:                                               ; preds = %32
  %38 = load i64, ptr %8, align 8, !tbaa !15
  %39 = trunc i64 %38 to i32
  %40 = call i32 @test_int_eq(ptr noundef @.str.5, i32 noundef 93, ptr noundef @.str.11, ptr noundef @.str.12, i32 noundef %39, i32 noundef 2)
  %41 = icmp ne i32 %40, 0
  br i1 %41, label %43, label %42

42:                                               ; preds = %37
  br label %121

43:                                               ; preds = %37
  %44 = load ptr, ptr %2, align 8, !tbaa !4
  call void @DSA_get0_pqg(ptr noundef %44, ptr noundef %11, ptr noundef %12, ptr noundef %13)
  %45 = load ptr, ptr %12, align 8, !tbaa !11
  %46 = getelementptr inbounds [256 x i8], ptr %7, i64 0, i64 0
  %47 = call i32 @BN_bn2bin(ptr noundef %45, ptr noundef %46)
  store i32 %47, ptr %5, align 4, !tbaa !9
  store i32 20, ptr %6, align 4, !tbaa !9
  %48 = load i32, ptr %5, align 4, !tbaa !9
  %49 = load i32, ptr %6, align 4, !tbaa !9
  %50 = call i32 @test_int_eq(ptr noundef @.str.5, i32 noundef 99, ptr noundef @.str.13, ptr noundef @.str.14, i32 noundef %48, i32 noundef %49)
  %51 = icmp ne i32 %50, 0
  br i1 %51, label %52, label %60

52:                                               ; preds = %43
  %53 = getelementptr inbounds [256 x i8], ptr %7, i64 0, i64 0
  %54 = load i32, ptr %5, align 4, !tbaa !9
  %55 = sext i32 %54 to i64
  %56 = load i32, ptr %5, align 4, !tbaa !9
  %57 = sext i32 %56 to i64
  %58 = call i32 @test_mem_eq(ptr noundef @.str.5, i32 noundef 99, ptr noundef @.str.15, ptr noundef @.str.16, ptr noundef %53, i64 noundef %55, ptr noundef @out_q, i64 noundef %57)
  %59 = icmp ne i32 %58, 0
  br i1 %59, label %61, label %60

60:                                               ; preds = %52, %43
  br label %121

61:                                               ; preds = %52
  %62 = load ptr, ptr %11, align 8, !tbaa !11
  %63 = getelementptr inbounds [256 x i8], ptr %7, i64 0, i64 0
  %64 = call i32 @BN_bn2bin(ptr noundef %62, ptr noundef %63)
  store i32 %64, ptr %5, align 4, !tbaa !9
  store i32 64, ptr %6, align 4, !tbaa !9
  %65 = load i32, ptr %5, align 4, !tbaa !9
  %66 = load i32, ptr %6, align 4, !tbaa !9
  %67 = call i32 @test_int_eq(ptr noundef @.str.5, i32 noundef 104, ptr noundef @.str.13, ptr noundef @.str.14, i32 noundef %65, i32 noundef %66)
  %68 = icmp ne i32 %67, 0
  br i1 %68, label %69, label %77

69:                                               ; preds = %61
  %70 = getelementptr inbounds [256 x i8], ptr %7, i64 0, i64 0
  %71 = load i32, ptr %5, align 4, !tbaa !9
  %72 = sext i32 %71 to i64
  %73 = load i32, ptr %5, align 4, !tbaa !9
  %74 = sext i32 %73 to i64
  %75 = call i32 @test_mem_eq(ptr noundef @.str.5, i32 noundef 104, ptr noundef @.str.15, ptr noundef @.str.17, ptr noundef %70, i64 noundef %72, ptr noundef @out_p, i64 noundef %74)
  %76 = icmp ne i32 %75, 0
  br i1 %76, label %78, label %77

77:                                               ; preds = %69, %61
  br label %121

78:                                               ; preds = %69
  %79 = load ptr, ptr %13, align 8, !tbaa !11
  %80 = getelementptr inbounds [256 x i8], ptr %7, i64 0, i64 0
  %81 = call i32 @BN_bn2bin(ptr noundef %79, ptr noundef %80)
  store i32 %81, ptr %5, align 4, !tbaa !9
  store i32 64, ptr %6, align 4, !tbaa !9
  %82 = load i32, ptr %5, align 4, !tbaa !9
  %83 = load i32, ptr %6, align 4, !tbaa !9
  %84 = call i32 @test_int_eq(ptr noundef @.str.5, i32 noundef 109, ptr noundef @.str.13, ptr noundef @.str.14, i32 noundef %82, i32 noundef %83)
  %85 = icmp ne i32 %84, 0
  br i1 %85, label %86, label %94

86:                                               ; preds = %78
  %87 = getelementptr inbounds [256 x i8], ptr %7, i64 0, i64 0
  %88 = load i32, ptr %5, align 4, !tbaa !9
  %89 = sext i32 %88 to i64
  %90 = load i32, ptr %5, align 4, !tbaa !9
  %91 = sext i32 %90 to i64
  %92 = call i32 @test_mem_eq(ptr noundef @.str.5, i32 noundef 109, ptr noundef @.str.15, ptr noundef @.str.18, ptr noundef %87, i64 noundef %89, ptr noundef @out_g, i64 noundef %91)
  %93 = icmp ne i32 %92, 0
  br i1 %93, label %95, label %94

94:                                               ; preds = %86, %78
  br label %121

95:                                               ; preds = %86
  %96 = load ptr, ptr %2, align 8, !tbaa !4
  %97 = call i32 @DSA_generate_key(ptr noundef %96)
  %98 = icmp ne i32 %97, 0
  %99 = zext i1 %98 to i32
  %100 = call i32 @test_true(ptr noundef @.str.5, i32 noundef 112, ptr noundef @.str.19, i32 noundef %99)
  %101 = icmp ne i32 %100, 0
  br i1 %101, label %103, label %102

102:                                              ; preds = %95
  br label %121

103:                                              ; preds = %95
  %104 = getelementptr inbounds [256 x i8], ptr %9, i64 0, i64 0
  %105 = load ptr, ptr %2, align 8, !tbaa !4
  %106 = call i32 @DSA_sign(i32 noundef 0, ptr noundef @dsa_test.str1, i32 noundef 20, ptr noundef %104, ptr noundef %10, ptr noundef %105)
  %107 = icmp ne i32 %106, 0
  %108 = zext i1 %107 to i32
  %109 = call i32 @test_true(ptr noundef @.str.5, i32 noundef 114, ptr noundef @.str.20, i32 noundef %108)
  %110 = icmp ne i32 %109, 0
  br i1 %110, label %112, label %111

111:                                              ; preds = %103
  br label %121

112:                                              ; preds = %103
  %113 = getelementptr inbounds [256 x i8], ptr %9, i64 0, i64 0
  %114 = load i32, ptr %10, align 4, !tbaa !9
  %115 = load ptr, ptr %2, align 8, !tbaa !4
  %116 = call i32 @DSA_verify(i32 noundef 0, ptr noundef @dsa_test.str1, i32 noundef 20, ptr noundef %113, i32 noundef %114, ptr noundef %115)
  %117 = call i32 @test_int_gt(ptr noundef @.str.5, i32 noundef 116, ptr noundef @.str.21, ptr noundef @.str.22, i32 noundef %116, i32 noundef 0)
  %118 = icmp ne i32 %117, 0
  br i1 %118, label %119, label %120

119:                                              ; preds = %112
  store i32 1, ptr %4, align 4, !tbaa !9
  br label %120

120:                                              ; preds = %119, %112
  br label %121

121:                                              ; preds = %120, %111, %102, %94, %77, %60, %42, %36, %31, %17
  %122 = load ptr, ptr %2, align 8, !tbaa !4
  call void @DSA_free(ptr noundef %122)
  %123 = load ptr, ptr %1, align 8, !tbaa !13
  call void @BN_GENCB_free(ptr noundef %123)
  %124 = load i32, ptr %4, align 4, !tbaa !9
  call void @llvm.lifetime.end.p0(i64 8, ptr %13) #4
  call void @llvm.lifetime.end.p0(i64 8, ptr %12) #4
  call void @llvm.lifetime.end.p0(i64 8, ptr %11) #4
  call void @llvm.lifetime.end.p0(i64 4, ptr %10) #4
  call void @llvm.lifetime.end.p0(i64 256, ptr %9) #4
  call void @llvm.lifetime.end.p0(i64 8, ptr %8) #4
  call void @llvm.lifetime.end.p0(i64 256, ptr %7) #4
  call void @llvm.lifetime.end.p0(i64 4, ptr %6) #4
  call void @llvm.lifetime.end.p0(i64 4, ptr %5) #4
  call void @llvm.lifetime.end.p0(i64 4, ptr %4) #4
  call void @llvm.lifetime.end.p0(i64 4, ptr %3) #4
  call void @llvm.lifetime.end.p0(i64 8, ptr %2) #4
  call void @llvm.lifetime.end.p0(i64 8, ptr %1) #4
  ret i32 %124
}