; Function Attrs: nounwind uwtable
define internal range(i32 0, 2) i32 @dsa_test() #0 {
  %1 = alloca i32, align 4
  %2 = alloca [256 x i8], align 16
  %3 = alloca i64, align 8
  %4 = alloca [256 x i8], align 16
  %5 = alloca i32, align 4
  %6 = alloca ptr, align 8
  %7 = alloca ptr, align 8
  %8 = alloca ptr, align 8
  call void @llvm.lifetime.start.p0(i64 4, ptr nonnull %1) #3
  call void @llvm.lifetime.start.p0(i64 256, ptr nonnull %2) #3
  call void @llvm.lifetime.start.p0(i64 8, ptr nonnull %3) #3
  call void @llvm.lifetime.start.p0(i64 256, ptr nonnull %4) #3
  call void @llvm.lifetime.start.p0(i64 4, ptr nonnull %5) #3
  call void @llvm.lifetime.start.p0(i64 8, ptr nonnull %6) #3
  store ptr null, ptr %6, align 8, !tbaa !4
  call void @llvm.lifetime.start.p0(i64 8, ptr nonnull %7) #3
  store ptr null, ptr %7, align 8, !tbaa !4
  call void @llvm.lifetime.start.p0(i64 8, ptr nonnull %8) #3
  store ptr null, ptr %8, align 8, !tbaa !4
  %9 = tail call ptr @BN_GENCB_new() #3
  %10 = tail call i32 @test_ptr(ptr noundef nonnull @.str.5, i32 noundef 82, ptr noundef nonnull @.str.6, ptr noundef %9) #3
  %.not = icmp eq i32 %10, 0
  br i1 %.not, label %61, label %11

11:                                               ; preds = %0
  tail call void @BN_GENCB_set(ptr noundef %9, ptr noundef nonnull @dsa_cb, ptr noundef null) #3
  %12 = tail call ptr @DSA_new() #3
  %13 = tail call i32 @test_ptr(ptr noundef nonnull @.str.5, i32 noundef 86, ptr noundef nonnull @.str.7, ptr noundef %12) #3
  %.not22 = icmp eq i32 %13, 0
  br i1 %.not22, label %61, label %14

14:                                               ; preds = %11
  %15 = call i32 @DSA_generate_parameters_ex(ptr noundef %12, i32 noundef 512, ptr noundef nonnull @dsa_test.seed, i32 noundef 20, ptr noundef nonnull %1, ptr noundef nonnull %3, ptr noundef %9) #3
  %16 = icmp ne i32 %15, 0
  %17 = zext i1 %16 to i32
  %18 = call i32 @test_true(ptr noundef nonnull @.str.5, i32 noundef 88, ptr noundef nonnull @.str.8, i32 noundef %17) #3
  %.not23 = icmp eq i32 %18, 0
  br i1 %.not23, label %61, label %19

19:                                               ; preds = %14
  %20 = load i32, ptr %1, align 4, !tbaa !9
  %21 = call i32 @test_int_eq(ptr noundef nonnull @.str.5, i32 noundef 91, ptr noundef nonnull @.str.9, ptr noundef nonnull @.str.10, i32 noundef %20, i32 noundef 105) #3
  %.not24 = icmp eq i32 %21, 0
  br i1 %.not24, label %61, label %22

22:                                               ; preds = %19
  %23 = load i64, ptr %3, align 8, !tbaa !11
  %24 = trunc i64 %23 to i32
  %25 = call i32 @test_int_eq(ptr noundef nonnull @.str.5, i32 noundef 93, ptr noundef nonnull @.str.11, ptr noundef nonnull @.str.12, i32 noundef %24, i32 noundef 2) #3
  %.not25 = icmp eq i32 %25, 0
  br i1 %.not25, label %61, label %26

26:                                               ; preds = %22
  call void @DSA_get0_pqg(ptr noundef %12, ptr noundef nonnull %6, ptr noundef nonnull %7, ptr noundef nonnull %8) #3
  %27 = load ptr, ptr %7, align 8, !tbaa !4
  %28 = call i32 @BN_bn2bin(ptr noundef %27, ptr noundef nonnull %2) #3
  %29 = call i32 @test_int_eq(ptr noundef nonnull @.str.5, i32 noundef 99, ptr noundef nonnull @.str.13, ptr noundef nonnull @.str.14, i32 noundef %28, i32 noundef 20) #3
  %.not26 = icmp eq i32 %29, 0
  br i1 %.not26, label %61, label %30

30:                                               ; preds = %26
  %31 = sext i32 %28 to i64
  %32 = call i32 @test_mem_eq(ptr noundef nonnull @.str.5, i32 noundef 99, ptr noundef nonnull @.str.15, ptr noundef nonnull @.str.16, ptr noundef nonnull %2, i64 noundef %31, ptr noundef nonnull @out_q, i64 noundef %31) #3
  %.not27 = icmp eq i32 %32, 0
  br i1 %.not27, label %61, label %33

33:                                               ; preds = %30
  %34 = load ptr, ptr %6, align 8, !tbaa !4
  %35 = call i32 @BN_bn2bin(ptr noundef %34, ptr noundef nonnull %2) #3
  %36 = call i32 @test_int_eq(ptr noundef nonnull @.str.5, i32 noundef 104, ptr noundef nonnull @.str.13, ptr noundef nonnull @.str.14, i32 noundef %35, i32 noundef 64) #3
  %.not28 = icmp eq i32 %36, 0
  br i1 %.not28, label %61, label %37

37:                                               ; preds = %33
  %38 = sext i32 %35 to i64
  %39 = call i32 @test_mem_eq(ptr noundef nonnull @.str.5, i32 noundef 104, ptr noundef nonnull @.str.15, ptr noundef nonnull @.str.17, ptr noundef nonnull %2, i64 noundef %38, ptr noundef nonnull @out_p, i64 noundef %38) #3
  %.not29 = icmp eq i32 %39, 0
  br i1 %.not29, label %61, label %40

40:                                               ; preds = %37
  %41 = load ptr, ptr %8, align 8, !tbaa !4
  %42 = call i32 @BN_bn2bin(ptr noundef %41, ptr noundef nonnull %2) #3
  %43 = call i32 @test_int_eq(ptr noundef nonnull @.str.5, i32 noundef 109, ptr noundef nonnull @.str.13, ptr noundef nonnull @.str.14, i32 noundef %42, i32 noundef 64) #3
  %.not30 = icmp eq i32 %43, 0
  br i1 %.not30, label %61, label %44

44:                                               ; preds = %40
  %45 = sext i32 %42 to i64
  %46 = call i32 @test_mem_eq(ptr noundef nonnull @.str.5, i32 noundef 109, ptr noundef nonnull @.str.15, ptr noundef nonnull @.str.18, ptr noundef nonnull %2, i64 noundef %45, ptr noundef nonnull @out_g, i64 noundef %45) #3
  %.not31 = icmp eq i32 %46, 0
  br i1 %.not31, label %61, label %47

47:                                               ; preds = %44
  %48 = call i32 @DSA_generate_key(ptr noundef %12) #3
  %49 = icmp ne i32 %48, 0
  %50 = zext i1 %49 to i32
  %51 = call i32 @test_true(ptr noundef nonnull @.str.5, i32 noundef 112, ptr noundef nonnull @.str.19, i32 noundef %50) #3
  %.not32 = icmp eq i32 %51, 0
  br i1 %.not32, label %61, label %52

52:                                               ; preds = %47
  %53 = call i32 @DSA_sign(i32 noundef 0, ptr noundef nonnull @dsa_test.str1, i32 noundef 20, ptr noundef nonnull %4, ptr noundef nonnull %5, ptr noundef %12) #3
  %54 = icmp ne i32 %53, 0
  %55 = zext i1 %54 to i32
  %56 = call i32 @test_true(ptr noundef nonnull @.str.5, i32 noundef 114, ptr noundef nonnull @.str.20, i32 noundef %55) #3
  %.not33 = icmp eq i32 %56, 0
  br i1 %.not33, label %61, label %57

57:                                               ; preds = %52
  %58 = load i32, ptr %5, align 4, !tbaa !9
  %59 = call i32 @DSA_verify(i32 noundef 0, ptr noundef nonnull @dsa_test.str1, i32 noundef 20, ptr noundef nonnull %4, i32 noundef %58, ptr noundef %12) #3
  %60 = call i32 @test_int_gt(ptr noundef nonnull @.str.5, i32 noundef 116, ptr noundef nonnull @.str.21, ptr noundef nonnull @.str.22, i32 noundef %59, i32 noundef 0) #3
  %.not34 = icmp ne i32 %60, 0
  %spec.select = zext i1 %.not34 to i32
  br label %61

61:                                               ; preds = %57, %52, %47, %40, %44, %33, %37, %26, %30, %22, %19, %11, %14, %0
  %.021 = phi ptr [ %12, %52 ], [ %12, %47 ], [ %12, %44 ], [ %12, %40 ], [ %12, %37 ], [ %12, %33 ], [ %12, %30 ], [ %12, %26 ], [ %12, %22 ], [ %12, %19 ], [ %12, %14 ], [ %12, %11 ], [ null, %0 ], [ %12, %57 ]
  %.0 = phi i32 [ 0, %52 ], [ 0, %47 ], [ 0, %44 ], [ 0, %40 ], [ 0, %37 ], [ 0, %33 ], [ 0, %30 ], [ 0, %26 ], [ 0, %22 ], [ 0, %19 ], [ 0, %14 ], [ 0, %11 ], [ 0, %0 ], [ %spec.select, %57 ]
  call void @DSA_free(ptr noundef %.021) #3
  call void @BN_GENCB_free(ptr noundef %9) #3
  call void @llvm.lifetime.end.p0(i64 8, ptr nonnull %8) #3
  call void @llvm.lifetime.end.p0(i64 8, ptr nonnull %7) #3
  call void @llvm.lifetime.end.p0(i64 8, ptr nonnull %6) #3
  call void @llvm.lifetime.end.p0(i64 4, ptr nonnull %5) #3
  call void @llvm.lifetime.end.p0(i64 256, ptr nonnull %4) #3
  call void @llvm.lifetime.end.p0(i64 8, ptr nonnull %3) #3
  call void @llvm.lifetime.end.p0(i64 256, ptr nonnull %2) #3
  call void @llvm.lifetime.end.p0(i64 4, ptr nonnull %1) #3
  ret i32 %.0
}